; Function Attrs: mustprogress null_pointer_is_valid sspstrong uwtable
define void @_ZN21ShowPacketBytesDialog23on_sbStart_valueChangedEi(ptr noundef align 8 dereferenceable_or_null(296) initializes((260, 264)) %0, i32 noundef %1) local_unnamed_addr #0 align 2 {
  %3 = getelementptr inbounds nuw i8, ptr %0, i64 260
  store i32 %1, ptr %3, align 4
  %4 = getelementptr inbounds nuw i8, ptr %0, i64 144
  %5 = load ptr, ptr %4, align 8
  %6 = getelementptr inbounds nuw i8, ptr %5, i64 96
  %7 = load ptr, ptr %6, align 8
  tail call void @_ZN8QSpinBox10setMinimumEi(ptr noundef align 8 dereferenceable_or_null(40) %7, i32 noundef %1)
  tail call void @_ZN21ShowPacketBytesDialog16updateFieldBytesEb(ptr noundef align 8 dereferenceable_or_null(296) %0, i1 noundef zeroext false)
  ret void
}